target datalayout = "e-m:e-p270:32:32-p271:32:32-p272:64:64-i64:64-i128:128-f80:128-n8:16:32:64-S128"
target triple = "x86_64-unknown-linux-gnu"

%"class.std::__shared_count" = type { ptr }
%"class.std::shared_ptr.22" = type { %"class.std::__shared_ptr.23" }
%"class.std::__shared_ptr.23" = type { ptr, %"class.std::__shared_count" }
%"class.rocksdb::(anonymous namespace)::FastLocalBloomBitsBuilder" = type <{ %"class.rocksdb::(anonymous namespace)::XXPH3FilterBitsBuilder", i32, [4 x i8] }>
%"class.rocksdb::(anonymous namespace)::XXPH3FilterBitsBuilder" = type { %"class.rocksdb::BuiltinFilterBitsBuilder", ptr, %"class.std::shared_ptr.22", %"class.std::deque", i8, %"struct.rocksdb::(anonymous namespace)::XXPH3FilterBitsBuilder::HashEntriesInfo" }
%"class.rocksdb::BuiltinFilterBitsBuilder" = type { %"class.rocksdb::FilterBitsBuilder" }
%"class.rocksdb::FilterBitsBuilder" = type { ptr }
%"class.std::deque" = type { %"class.std::_Deque_base" }
%"class.std::_Deque_base" = type { %"struct.std::_Deque_base<std::unique_ptr<rocksdb::CacheReservationManager::CacheReservationHandle>, std::allocator<std::unique_ptr<rocksdb::CacheReservationManager::CacheReservationHandle>>>::_Deque_impl" }
%"struct.std::_Deque_base<std::unique_ptr<rocksdb::CacheReservationManager::CacheReservationHandle>, std::allocator<std::unique_ptr<rocksdb::CacheReservationManager::CacheReservationHandle>>>::_Deque_impl" = type { %"struct.std::_Deque_base<std::unique_ptr<rocksdb::CacheReservationManager::CacheReservationHandle>, std::allocator<std::unique_ptr<rocksdb::CacheReservationManager::CacheReservationHandle>>>::_Deque_impl_data" }
%"struct.std::_Deque_base<std::unique_ptr<rocksdb::CacheReservationManager::CacheReservationHandle>, std::allocator<std::unique_ptr<rocksdb::CacheReservationManager::CacheReservationHandle>>>::_Deque_impl_data" = type { ptr, i64, %"struct.std::_Deque_iterator", %"struct.std::_Deque_iterator" }
%"struct.std::_Deque_iterator" = type { ptr, ptr, ptr, ptr }
%"struct.rocksdb::(anonymous namespace)::XXPH3FilterBitsBuilder::HashEntriesInfo" = type { %"class.std::deque.31", %"class.std::deque", i64 }
%"class.std::deque.31" = type { %"class.std::_Deque_base.32" }
%"class.std::_Deque_base.32" = type { %"struct.std::_Deque_base<unsigned long, std::allocator<unsigned long>>::_Deque_impl" }
%"struct.std::_Deque_base<unsigned long, std::allocator<unsigned long>>::_Deque_impl" = type { %"struct.std::_Deque_base<unsigned long, std::allocator<unsigned long>>::_Deque_impl_data" }
%"struct.std::_Deque_base<unsigned long, std::allocator<unsigned long>>::_Deque_impl_data" = type { ptr, i64, %"struct.std::_Deque_iterator.36", %"struct.std::_Deque_iterator.36" }
%"struct.std::_Deque_iterator.36" = type { ptr, ptr, ptr, ptr }
%"class.rocksdb::(anonymous namespace)::Standard128RibbonBitsBuilder" = type { %"class.rocksdb::(anonymous namespace)::XXPH3FilterBitsBuilder", double, ptr, %"class.rocksdb::(anonymous namespace)::FastLocalBloomBitsBuilder" }
%"class.rocksdb::ribbon::SerializableInterleavedSolution" = type <{ ptr, i64, i32, i32, i32, [4 x i8] }>

; Function Attrs: mustprogress nounwind uwtable
define internal noundef i32 @_ZNK7rocksdb6ribbon31SerializableInterleavedSolutionINS0_23StandardRehasherAdapterINS_12_GLOBAL__N_141Standard128RibbonRehasherTypesAndSettingsEEEE14GetNumSegmentsEv(ptr noundef nonnull align 8 dereferenceable(28) %this) #1 align 2 {
entry:
  %this.addr = alloca ptr, align 8
  store ptr %this, ptr %this.addr, align 8
  %this1 = load ptr, ptr %this.addr, align 8
  %data_len_ = getelementptr inbounds %"class.rocksdb::ribbon::SerializableInterleavedSolution", ptr %this1, i32 0, i32 1
  %0 = load i64, ptr %data_len_, align 8
  %div = udiv i64 %0, 16
  %conv = trunc i64 %div to i32
  ret i32 %conv
}

; Function Attrs: mustprogress nounwind uwtable
define internal noundef i32 @_ZNK7rocksdb6ribbon31SerializableInterleavedSolutionINS0_23StandardRehasherAdapterINS_12_GLOBAL__N_141Standard128RibbonRehasherTypesAndSettingsEEEE12GetNumBlocksEv(ptr noundef nonnull align 8 dereferenceable(28) %this) #1 align 2 {
entry:
  %this.addr = alloca ptr, align 8
  %num_slots = alloca i32, align 4
  store ptr %this, ptr %this.addr, align 8
  %this1 = load ptr, ptr %this.addr, align 8
  %num_starts_ = getelementptr inbounds %"class.rocksdb::ribbon::SerializableInterleavedSolution", ptr %this1, i32 0, i32 2
  %0 = load i32, ptr %num_starts_, align 8
  %add = add i32 %0, 128
  %sub = sub i32 %add, 1
  store i32 %sub, ptr %num_slots, align 4
  %1 = load i32, ptr %num_slots, align 4
  %div = udiv i32 %1, 128
  ret i32 %div
}

; Function Attrs: mustprogress uwtable
define internal void @_ZN7rocksdb6ribbon31SerializableInterleavedSolutionINS0_23StandardRehasherAdapterINS_12_GLOBAL__N_141Standard128RibbonRehasherTypesAndSettingsEEEE17InternalConfigureEv(ptr noundef nonnull align 8 dereferenceable(28) %this) #0 align 2 {
entry:
  %this.addr = alloca ptr, align 8
  %num_blocks = alloca i32, align 4
  %num_segments = alloca i32, align 4
  store ptr %this, ptr %this.addr, align 8
  %this1 = load ptr, ptr %this.addr, align 8
  %call = call noundef i32 @_ZNK7rocksdb6ribbon31SerializableInterleavedSolutionINS0_23StandardRehasherAdapterINS_12_GLOBAL__N_141Standard128RibbonRehasherTypesAndSettingsEEEE12GetNumBlocksEv(ptr noundef nonnull align 8 dereferenceable(28) %this1)
  store i32 %call, ptr %num_blocks, align 4
  %call2 = call noundef i32 @_ZNK7rocksdb6ribbon31SerializableInterleavedSolutionINS0_23StandardRehasherAdapterINS_12_GLOBAL__N_141Standard128RibbonRehasherTypesAndSettingsEEEE14GetNumSegmentsEv(ptr noundef nonnull align 8 dereferenceable(28) %this1)
  store i32 %call2, ptr %num_segments, align 4
  %0 = load i32, ptr %num_blocks, align 4
  %cmp = icmp eq i32 %0, 0
  br i1 %cmp, label %if.then, label %if.else

if.then:                                          ; preds = %entry
  %upper_num_columns_ = getelementptr inbounds %"class.rocksdb::ribbon::SerializableInterleavedSolution", ptr %this1, i32 0, i32 3
  store i32 0, ptr %upper_num_columns_, align 4
  %upper_start_block_ = getelementptr inbounds %"class.rocksdb::ribbon::SerializableInterleavedSolution", ptr %this1, i32 0, i32 4
  store i32 0, ptr %upper_start_block_, align 8
  br label %if.end14

if.else:                                          ; preds = %entry
  %1 = load i32, ptr %num_segments, align 4
  %2 = load i32, ptr %num_blocks, align 4
  %add = add i32 %1, %2
  %sub = sub i32 %add, 1
  %3 = load i32, ptr %num_blocks, align 4
  %div = udiv i32 %sub, %3
  %upper_num_columns_3 = getelementptr inbounds %"class.rocksdb::ribbon::SerializableInterleavedSolution", ptr %this1, i32 0, i32 3
  store i32 %div, ptr %upper_num_columns_3, align 4
  %upper_num_columns_4 = getelementptr inbounds %"class.rocksdb::ribbon::SerializableInterleavedSolution", ptr %this1, i32 0, i32 3
  %4 = load i32, ptr %upper_num_columns_4, align 4
  %5 = load i32, ptr %num_blocks, align 4
  %mul = mul i32 %4, %5
  %6 = load i32, ptr %num_segments, align 4
  %sub5 = sub i32 %mul, %6
  %upper_start_block_6 = getelementptr inbounds %"class.rocksdb::ribbon::SerializableInterleavedSolution", ptr %this1, i32 0, i32 4
  store i32 %sub5, ptr %upper_start_block_6, align 8
  %upper_num_columns_7 = getelementptr inbounds %"class.rocksdb::ribbon::SerializableInterleavedSolution", ptr %this1, i32 0, i32 3
  %7 = load i32, ptr %upper_num_columns_7, align 4
  %conv = zext i32 %7 to i64
  %cmp8 = icmp ugt i64 %conv, 32
  br i1 %cmp8, label %if.then9, label %if.end

if.then9:                                         ; preds = %if.else
  %upper_num_columns_10 = getelementptr inbounds %"class.rocksdb::ribbon::SerializableInterleavedSolution", ptr %this1, i32 0, i32 3
  store i32 32, ptr %upper_num_columns_10, align 4
  %upper_start_block_11 = getelementptr inbounds %"class.rocksdb::ribbon::SerializableInterleavedSolution", ptr %this1, i32 0, i32 4
  store i32 0, ptr %upper_start_block_11, align 8
  %8 = load i32, ptr %num_blocks, align 4
  %upper_num_columns_12 = getelementptr inbounds %"class.rocksdb::ribbon::SerializableInterleavedSolution", ptr %this1, i32 0, i32 3
  %9 = load i32, ptr %upper_num_columns_12, align 4
  %mul13 = mul i32 %8, %9
  store i32 %mul13, ptr %num_segments, align 4
  br label %if.end

if.end:                                           ; preds = %if.then9, %if.else
  br label %if.end14

if.end14:                                         ; preds = %if.end, %if.then
  %10 = load i32, ptr %num_segments, align 4
  %conv15 = zext i32 %10 to i64
  %mul16 = mul i64 %conv15, 16
  %data_len_ = getelementptr inbounds %"class.rocksdb::ribbon::SerializableInterleavedSolution", ptr %this1, i32 0, i32 1
  store i64 %mul16, ptr %data_len_, align 8
  ret void
}

; Function Attrs: mustprogress uwtable
define internal void @_ZN7rocksdb6ribbon31SerializableInterleavedSolutionINS0_23StandardRehasherAdapterINS_12_GLOBAL__N_141Standard128RibbonRehasherTypesAndSettingsEEEE19PrepareForNumStartsEj(ptr noundef nonnull align 8 dereferenceable(28) %this, i32 noundef %num_starts) #0 align 2 {
entry:
  %this.addr = alloca ptr, align 8
  %num_starts.addr = alloca i32, align 4
  store ptr %this, ptr %this.addr, align 8
  store i32 %num_starts, ptr %num_starts.addr, align 4
  %this1 = load ptr, ptr %this.addr, align 8
  %0 = load i32, ptr %num_starts.addr, align 4
  %num_starts_ = getelementptr inbounds %"class.rocksdb::ribbon::SerializableInterleavedSolution", ptr %this1, i32 0, i32 2
  store i32 %0, ptr %num_starts_, align 8
  call void @_ZN7rocksdb6ribbon31SerializableInterleavedSolutionINS0_23StandardRehasherAdapterINS_12_GLOBAL__N_141Standard128RibbonRehasherTypesAndSettingsEEEE17InternalConfigureEv(ptr noundef nonnull align 8 dereferenceable(28) %this1)
  ret void
}

; Function Attrs: mustprogress nounwind uwtable
define linkonce_odr noundef double @_ZSt3powIdjEN9__gnu_cxx9__promoteIDTplcvNS1_IT_Xsr3std12__is_integerIS2_EE7__valueEE6__typeELi0EcvNS1_IT0_Xsr3std12__is_integerIS5_EE7__valueEE6__typeELi0EEXsr3std12__is_integerIS8_EE7__valueEE6__typeES2_S5_(double noundef %__x, i32 noundef %__y) #1 comdat {
entry:
  %__x.addr = alloca double, align 8
  %__y.addr = alloca i32, align 4
  store double %__x, ptr %__x.addr, align 8
  store i32 %__y, ptr %__y.addr, align 4
  %0 = load double, ptr %__x.addr, align 8
  %1 = load i32, ptr %__y.addr, align 4
  %conv = uitofp i32 %1 to double
  %call = call double @pow(double noundef %0, double noundef %conv) #3
  ret double %call
}

; Function Attrs: mustprogress uwtable
define internal void @_ZN7rocksdb6ribbon31SerializableInterleavedSolutionINS0_23StandardRehasherAdapterINS_12_GLOBAL__N_141Standard128RibbonRehasherTypesAndSettingsEEEE21ConfigureForNumBlocksEj(ptr noundef nonnull align 8 dereferenceable(28) %this, i32 noundef %num_blocks) #0 align 2 {
entry:
  %this.addr = alloca ptr, align 8
  %num_blocks.addr = alloca i32, align 4
  store ptr %this, ptr %this.addr, align 8
  store i32 %num_blocks, ptr %num_blocks.addr, align 4
  %this1 = load ptr, ptr %this.addr, align 8
  %0 = load i32, ptr %num_blocks.addr, align 4
  %cmp = icmp eq i32 %0, 0
  br i1 %cmp, label %if.then, label %if.else

if.then:                                          ; preds = %entry
  call void @_ZN7rocksdb6ribbon31SerializableInterleavedSolutionINS0_23StandardRehasherAdapterINS_12_GLOBAL__N_141Standard128RibbonRehasherTypesAndSettingsEEEE19PrepareForNumStartsEj(ptr noundef nonnull align 8 dereferenceable(28) %this1, i32 noundef 0)
  br label %if.end

if.else:                                          ; preds = %entry
  %1 = load i32, ptr %num_blocks.addr, align 4
  %mul = mul i32 %1, 128
  %sub = sub i32 %mul, 128
  %add = add i32 %sub, 1
  call void @_ZN7rocksdb6ribbon31SerializableInterleavedSolutionINS0_23StandardRehasherAdapterINS_12_GLOBAL__N_141Standard128RibbonRehasherTypesAndSettingsEEEE19PrepareForNumStartsEj(ptr noundef nonnull align 8 dereferenceable(28) %this1, i32 noundef %add)
  br label %if.end

if.end:                                           ; preds = %if.else, %if.then
  ret void
}

; Function Attrs: mustprogress nounwind uwtable
define internal noundef i32 @_ZN7rocksdb6ribbon31SerializableInterleavedSolutionINS0_23StandardRehasherAdapterINS_12_GLOBAL__N_141Standard128RibbonRehasherTypesAndSettingsEEEE15RoundUpNumSlotsEj(i32 noundef %num_slots) #1 align 2 {
entry:
  %num_slots.addr = alloca i32, align 4
  %corrected = alloca i32, align 4
  store i32 %num_slots, ptr %num_slots.addr, align 4
  %0 = load i32, ptr %num_slots.addr, align 4
  %add = add i32 %0, 128
  %sub = sub i32 %add, 1
  %div = udiv i32 %sub, 128
  %mul = mul i32 %div, 128
  store i32 %mul, ptr %corrected, align 4
  %1 = load i32, ptr %corrected, align 4
  %cmp = icmp eq i32 %1, 128
  br i1 %cmp, label %if.then, label %if.end

if.then:                                          ; preds = %entry
  %2 = load i32, ptr %corrected, align 4
  %add1 = add i32 %2, 128
  store i32 %add1, ptr %corrected, align 4
  br label %if.end

if.end:                                           ; preds = %if.then, %entry
  %3 = load i32, ptr %corrected, align 4
  ret i32 %3
}

; Function Attrs: mustprogress uwtable
define internal noundef double @_ZNK7rocksdb6ribbon31SerializableInterleavedSolutionINS0_23StandardRehasherAdapterINS_12_GLOBAL__N_141Standard128RibbonRehasherTypesAndSettingsEEEE14ExpectedFpRateEv(ptr noundef nonnull align 8 dereferenceable(28) %this) #0 align 2 {
entry:
  %this.addr = alloca ptr, align 8
  %lower_portion = alloca double, align 8
  store ptr %this, ptr %this.addr, align 8
  %this1 = load ptr, ptr %this.addr, align 8
  %upper_start_block_ = getelementptr inbounds %"class.rocksdb::ribbon::SerializableInterleavedSolution", ptr %this1, i32 0, i32 4
  %0 = load i32, ptr %upper_start_block_, align 8
  %conv = uitofp i32 %0 to double
  %mul = fmul double %conv, 1.000000e+00
  %mul2 = fmul double %mul, 1.280000e+02
  %num_starts_ = getelementptr inbounds %"class.rocksdb::ribbon::SerializableInterleavedSolution", ptr %this1, i32 0, i32 2
  %1 = load i32, ptr %num_starts_, align 8
  %conv3 = uitofp i32 %1 to double
  %div = fdiv double %mul2, %conv3
  store double %div, ptr %lower_portion, align 8
  %2 = load double, ptr %lower_portion, align 8
  %upper_num_columns_ = getelementptr inbounds %"class.rocksdb::ribbon::SerializableInterleavedSolution", ptr %this1, i32 0, i32 3
  %3 = load i32, ptr %upper_num_columns_, align 4
  %sub = sub i32 %3, 1
  %call = call noundef double @_ZSt3powIdjEN9__gnu_cxx9__promoteIDTplcvNS1_IT_Xsr3std12__is_integerIS2_EE7__valueEE6__typeELi0EcvNS1_IT0_Xsr3std12__is_integerIS5_EE7__valueEE6__typeELi0EEXsr3std12__is_integerIS8_EE7__valueEE6__typeES2_S5_(double noundef 5.000000e-01, i32 noundef %sub)
  %4 = load double, ptr %lower_portion, align 8
  %sub5 = fsub double 1.000000e+00, %4
  %upper_num_columns_6 = getelementptr inbounds %"class.rocksdb::ribbon::SerializableInterleavedSolution", ptr %this1, i32 0, i32 3
  %5 = load i32, ptr %upper_num_columns_6, align 4
  %call7 = call noundef double @_ZSt3powIdjEN9__gnu_cxx9__promoteIDTplcvNS1_IT_Xsr3std12__is_integerIS2_EE7__valueEE6__typeELi0EcvNS1_IT0_Xsr3std12__is_integerIS5_EE7__valueEE6__typeELi0EEXsr3std12__is_integerIS8_EE7__valueEE6__typeES2_S5_(double noundef 5.000000e-01, i32 noundef %5)
  %mul8 = fmul double %sub5, %call7
  %6 = call double @llvm.fmuladd.f64(double %2, double %call, double %mul8)
  ret double %6
}

; Function Attrs: mustprogress uwtable
define internal void @_ZN7rocksdb6ribbon31SerializableInterleavedSolutionINS0_23StandardRehasherAdapterINS_12_GLOBAL__N_141Standard128RibbonRehasherTypesAndSettingsEEEE20ConfigureForNumSlotsEj(ptr noundef nonnull align 8 dereferenceable(28) %this, i32 noundef %num_slots) #0 align 2 {
entry:
  %this.addr = alloca ptr, align 8
  %num_slots.addr = alloca i32, align 4
  store ptr %this, ptr %this.addr, align 8
  store i32 %num_slots, ptr %num_slots.addr, align 4
  %this1 = load ptr, ptr %this.addr, align 8
  %0 = load i32, ptr %num_slots.addr, align 4
  %div = udiv i32 %0, 128
  call void @_ZN7rocksdb6ribbon31SerializableInterleavedSolutionINS0_23StandardRehasherAdapterINS_12_GLOBAL__N_141Standard128RibbonRehasherTypesAndSettingsEEEE21ConfigureForNumBlocksEj(ptr noundef nonnull align 8 dereferenceable(28) %this1, i32 noundef %div)
  ret void
}

; Function Attrs: mustprogress nounwind uwtable
define internal void @_ZN7rocksdb6ribbon31SerializableInterleavedSolutionINS0_23StandardRehasherAdapterINS_12_GLOBAL__N_141Standard128RibbonRehasherTypesAndSettingsEEEEC2EPcm(ptr noundef nonnull align 8 dereferenceable(28) %this, ptr noundef %data, i64 noundef %data_len) unnamed_addr #1 align 2 {
entry:
  %this.addr = alloca ptr, align 8
  %data.addr = alloca ptr, align 8
  %data_len.addr = alloca i64, align 8
  store ptr %this, ptr %this.addr, align 8
  store ptr %data, ptr %data.addr, align 8
  store i64 %data_len, ptr %data_len.addr, align 8
  %this1 = load ptr, ptr %this.addr, align 8
  %data_ = getelementptr inbounds %"class.rocksdb::ribbon::SerializableInterleavedSolution", ptr %this1, i32 0, i32 0
  %0 = load ptr, ptr %data.addr, align 8
  store ptr %0, ptr %data_, align 8
  %data_len_ = getelementptr inbounds %"class.rocksdb::ribbon::SerializableInterleavedSolution", ptr %this1, i32 0, i32 1
  %1 = load i64, ptr %data_len.addr, align 8
  store i64 %1, ptr %data_len_, align 8
  %num_starts_ = getelementptr inbounds %"class.rocksdb::ribbon::SerializableInterleavedSolution", ptr %this1, i32 0, i32 2
  store i32 0, ptr %num_starts_, align 8
  %upper_num_columns_ = getelementptr inbounds %"class.rocksdb::ribbon::SerializableInterleavedSolution", ptr %this1, i32 0, i32 3
  store i32 0, ptr %upper_num_columns_, align 4
  %upper_start_block_ = getelementptr inbounds %"class.rocksdb::ribbon::SerializableInterleavedSolution", ptr %this1, i32 0, i32 4
  store i32 0, ptr %upper_start_block_, align 8
  ret void
}

; Function Attrs: mustprogress uwtable
define internal noundef i32 @_ZN7rocksdb12_GLOBAL__N_128Standard128RibbonBitsBuilder20NumEntriesToNumSlotsEj(i32 noundef %num_entries) #0 align 2 {
entry:
  %num_entries.addr = alloca i32, align 4
  %num_slots1 = alloca i32, align 4
  store i32 %num_entries, ptr %num_entries.addr, align 4
  %0 = load i32, ptr %num_entries.addr, align 4
  %call = call noundef i32 @_ZN7rocksdb6ribbon6detail34BandingConfigHelper1MaybeSupportedILNS0_25ConstructionFailureChanceE1ELm128ELb0ELb0ELb1EE11GetNumSlotsEj(i32 noundef %0)
  store i32 %call, ptr %num_slots1, align 4
  %1 = load i32, ptr %num_slots1, align 4
  %call1 = call noundef i32 @_ZN7rocksdb6ribbon31SerializableInterleavedSolutionINS0_23StandardRehasherAdapterINS_12_GLOBAL__N_141Standard128RibbonRehasherTypesAndSettingsEEEE15RoundUpNumSlotsEj(i32 noundef %1)
  ret i32 %call1
}

; Function Attrs: mustprogress uwtable
define internal noundef double @_ZN7rocksdb12_GLOBAL__N_128Standard128RibbonBitsBuilder15EstimatedFpRateEmm(ptr noundef nonnull align 8 dereferenceable(600) %this, i64 noundef %num_entries, i64 noundef %len_with_metadata) unnamed_addr #0 align 2 {
entry:
  %retval = alloca double, align 8
  %this.addr = alloca ptr, align 8
  %num_entries.addr = alloca i64, align 8
  %len_with_metadata.addr = alloca i64, align 8
  %num_slots = alloca i32, align 4
  %fake_soln = alloca %"class.rocksdb::ribbon::SerializableInterleavedSolution", align 8
  store ptr %this, ptr %this.addr, align 8
  store i64 %num_entries, ptr %num_entries.addr, align 8
  store i64 %len_with_metadata, ptr %len_with_metadata.addr, align 8
  %this1 = load ptr, ptr %this.addr, align 8
  %0 = load i64, ptr %num_entries.addr, align 8
  %cmp = icmp ugt i64 %0, 950000000
  br i1 %cmp, label %if.then, label %if.end

if.then:                                          ; preds = %entry
  %bloom_fallback_ = getelementptr inbounds %"class.rocksdb::(anonymous namespace)::Standard128RibbonBitsBuilder", ptr %this1, i32 0, i32 3
  %1 = load i64, ptr %num_entries.addr, align 8
  %2 = load i64, ptr %len_with_metadata.addr, align 8
  %call = call noundef double @_ZN7rocksdb12_GLOBAL__N_125FastLocalBloomBitsBuilder15EstimatedFpRateEmm(ptr noundef nonnull align 8 dereferenceable(292) %bloom_fallback_, i64 noundef %1, i64 noundef %2)
  store double %call, ptr %retval, align 8
  br label %return

if.end:                                           ; preds = %entry
  %3 = load i64, ptr %num_entries.addr, align 8
  %conv = trunc i64 %3 to i32
  %call2 = call noundef i32 @_ZN7rocksdb12_GLOBAL__N_128Standard128RibbonBitsBuilder20NumEntriesToNumSlotsEj(i32 noundef %conv)
  store i32 %call2, ptr %num_slots, align 4
  %4 = load i64, ptr %len_with_metadata.addr, align 8
  call void @_ZN7rocksdb6ribbon31SerializableInterleavedSolutionINS0_23StandardRehasherAdapterINS_12_GLOBAL__N_141Standard128RibbonRehasherTypesAndSettingsEEEEC2EPcm(ptr noundef nonnull align 8 dereferenceable(28) %fake_soln, ptr noundef null, i64 noundef %4)
  %5 = load i32, ptr %num_slots, align 4
  call void @_ZN7rocksdb6ribbon31SerializableInterleavedSolutionINS0_23StandardRehasherAdapterINS_12_GLOBAL__N_141Standard128RibbonRehasherTypesAndSettingsEEEE20ConfigureForNumSlotsEj(ptr noundef nonnull align 8 dereferenceable(28) %fake_soln, i32 noundef %5)
  %call3 = call noundef double @_ZNK7rocksdb6ribbon31SerializableInterleavedSolutionINS0_23StandardRehasherAdapterINS_12_GLOBAL__N_141Standard128RibbonRehasherTypesAndSettingsEEEE14ExpectedFpRateEv(ptr noundef nonnull align 8 dereferenceable(28) %fake_soln)
  store double %call3, ptr %retval, align 8
  br label %return

return:                                           ; preds = %if.end, %if.then
  %6 = load double, ptr %retval, align 8
  ret double %6
}