; Function Attrs: mustprogress uwtable
define internal noundef double @_ZN7rocksdb12_GLOBAL__N_128Standard128RibbonBitsBuilder15EstimatedFpRateEmm(ptr nocapture noundef nonnull readonly align 8 dereferenceable(600) %this, i64 noundef %num_entries, i64 noundef %len_with_metadata) unnamed_addr #3 align 2 {
entry:
  %cmp = icmp ugt i64 %num_entries, 950000000
  br i1 %cmp, label %if.then, label %if.end

if.then:                                          ; preds = %entry
  %bloom_fallback_ = getelementptr inbounds i8, ptr %this, i64 304
  %call = tail call noundef double @_ZN7rocksdb12_GLOBAL__N_125FastLocalBloomBitsBuilder15EstimatedFpRateEmm(ptr noundef nonnull align 8 dereferenceable(292) %bloom_fallback_, i64 noundef %num_entries, i64 noundef %len_with_metadata)
  br label %return

if.end:                                           ; preds = %entry
  %conv = trunc i64 %num_entries to i32
  %call.i = tail call noundef i32 @_ZN7rocksdb6ribbon6detail34BandingConfigHelper1MaybeSupportedILNS0_25ConstructionFailureChanceE1ELm128ELb0ELb0ELb1EE11GetNumSlotsEj(i32 noundef %conv)
  %sub.i.i = add i32 %call.i, 127
  %div3.i.i = and i32 %sub.i.i, -128
  %cmp.i.i = icmp eq i32 %div3.i.i, 128
  %spec.select.i.i = select i1 %cmp.i.i, i32 256, i32 %div3.i.i
  %cmp.i.i4 = icmp eq i32 %spec.select.i.i, 0
  br i1 %cmp.i.i4, label %_ZN7rocksdb6ribbon31SerializableInterleavedSolutionINS0_23StandardRehasherAdapterINS_12_GLOBAL__N_141Standard128RibbonRehasherTypesAndSettingsEEEE20ConfigureForNumSlotsEj.exit, label %if.else.i.i.i.i

if.else.i.i.i.i:                                  ; preds = %if.end
  %div1.i = lshr exact i32 %spec.select.i.i, 7
  %add.i.i = add i32 %spec.select.i.i, -127
  %div1.i8.i.i4.i.i = lshr i64 %len_with_metadata, 4
  %conv.i.i.i5.i.i = trunc i64 %div1.i8.i.i4.i.i to i32
  %add.i.i.i.i = add i32 %conv.i.i.i5.i.i, -1
  %sub.i.i.i.i = add i32 %add.i.i.i.i, %div1.i
  %div.i.i.i.i = udiv i32 %sub.i.i.i.i, %div1.i
  %mul.i.i.i.i = mul i32 %div.i.i.i.i, %div1.i
  %sub5.i.i.i.i = sub i32 %mul.i.i.i.i, %conv.i.i.i5.i.i
  %cmp8.i.i.i.i = icmp ugt i32 %div.i.i.i.i, 32
  %fake_soln.sroa.10.0 = tail call i32 @llvm.umin.i32(i32 %div.i.i.i.i, i32 32)
  %fake_soln.sroa.16.0 = select i1 %cmp8.i.i.i.i, i32 0, i32 %sub5.i.i.i.i
  %0 = uitofp i32 %fake_soln.sroa.16.0 to double
  %1 = fmul double %0, 1.280000e+02
  %2 = uitofp i32 %add.i.i to double
  %3 = fdiv double %1, %2
  br label %_ZN7rocksdb6ribbon31SerializableInterleavedSolutionINS0_23StandardRehasherAdapterINS_12_GLOBAL__N_141Standard128RibbonRehasherTypesAndSettingsEEEE20ConfigureForNumSlotsEj.exit

_ZN7rocksdb6ribbon31SerializableInterleavedSolutionINS0_23StandardRehasherAdapterINS_12_GLOBAL__N_141Standard128RibbonRehasherTypesAndSettingsEEEE20ConfigureForNumSlotsEj.exit: ; preds = %if.end, %if.else.i.i.i.i
  %fake_soln.sroa.10.1 = phi i32 [ %fake_soln.sroa.10.0, %if.else.i.i.i.i ], [ 0, %if.end ]
  %div.i = phi double [ %3, %if.else.i.i.i.i ], [ 0x7FF8000000000000, %if.end ]
  %sub.i = add nsw i32 %fake_soln.sroa.10.1, -1
  %conv.i.i = uitofp i32 %sub.i to double
  %mul.i = fneg double %conv.i.i
  %exp2.i = tail call double @exp2(double %mul.i)
  %sub5.i = fsub double 1.000000e+00, %div.i
  %conv.i2.i = uitofp i32 %fake_soln.sroa.10.1 to double
  %mul4.i = fneg double %conv.i2.i
  %exp25.i = tail call double @exp2(double %mul4.i)
  %mul8.i = fmul double %sub5.i, %exp25.i
  %4 = tail call noundef double @llvm.fmuladd.f64(double %div.i, double %exp2.i, double %mul8.i)
  br label %return

return:                                           ; preds = %_ZN7rocksdb6ribbon31SerializableInterleavedSolutionINS0_23StandardRehasherAdapterINS_12_GLOBAL__N_141Standard128RibbonRehasherTypesAndSettingsEEEE20ConfigureForNumSlotsEj.exit, %if.then
  %retval.0 = phi double [ %call, %if.then ], [ %4, %_ZN7rocksdb6ribbon31SerializableInterleavedSolutionINS0_23StandardRehasherAdapterINS_12_GLOBAL__N_141Standard128RibbonRehasherTypesAndSettingsEEEE20ConfigureForNumSlotsEj.exit ]
  ret double %retval.0
}